(dp1
S'S129/006'
p2
I1
sS'S119/008'
p3
I1
sS'S129/002'
p4
I7
sS'S046/004'
p5
I3
sS'S119/003'
p6
I4
sS'S062/001'
p7
I4
sS'S062/002'
p8
I7
sS'S098/004'
p9
I5
sS'S062/004'
p10
I5
sS'S062/005'
p11
I3
sS'S069/002'
p12
I7
sS'S055/006'
p13
I4
sS'S155/002'
p14
I2
sS'S068/004'
p15
I4
sS'S068/005'
p16
I3
sS'S096/001'
p17
I7
sS'S068/003'
p18
I7
sS'S096/003'
p19
I3
sS'S044/003'
p20
I5
sS'S083/003'
p21
I5
sS'S116/001'
p22
I7
sS'S055/005'
p23
I5
sS'S135/012'
p24
I5
sS'S078/007'
p25
I3
sS'S116/006'
p26
I3
sS'S139/002'
p27
I2
sS'S070/005'
p28
I3
sS'S077/001'
p29
I7
sS'S077/006'
p30
I3
sS'S010/002'
p31
I7
sS'S160/006'
p32
I2
sS'S070/002'
p33
I7
sS'S089/002'
p34
I5
sS'S119/001'
p35
I7
sS'S066/004'
p36
I6
sS'S091/003'
p37
I5
sS'S080/001'
p38
I7
sS'S148/002'
p39
I2
sS'S072/006'
p40
I5
sS'S087/007'
p41
I1
sS'S098/003'
p42
I3
sS'S087/005'
p43
I5
sS'S087/004'
p44
I3
sS'S505/006'
p45
I6
sS'S087/001'
p46
I7
sS'S037/001'
p47
I7
sS'S135/001'
p48
I7
sS'S010/006'
p49
I5
sS'S055/004'
p50
I1
sS'S010/004'
p51
I1
sS'S089/001'
p52
I7
sS'S131/010'
p53
I3
sS'S089/003'
p54
I1
sS'S055/001'
p55
I7
sS'S051/002'
p56
I7
sS'S072/005'
p57
I1
sS'S505/002'
p58
I2
sS'S005/001'
p59
I3
sS'S051/003'
p60
I3
sS'S064/003'
p61
I5
sS'S064/001'
p62
I7
sS'S064/004'
p63
I6
sS'S138/004'
p64
I7
sS'S014/003'
p65
I1
sS'S014/002'
p66
I6
sS'S014/001'
p67
I7
sS'S127/001'
p68
I7
sS'S014/005'
p69
I5
sS'S092/001'
p70
I7
sS'S092/003'
p71
I1
sS'S086/001'
p72
I7
sS'S501/006'
p73
I6
sS'S092/004'
p74
I5
sS'S157/002'
p75
I2
sS'S130/009'
p76
I6
sS'S133/003'
p77
I1
sS'S117/003'
p78
I4
sS'S130/007'
p79
I1
sS'S130/001'
p80
I7
sS'S136/006'
p81
I5
sS'S108/008'
p82
I5
sS'S108/006'
p83
I3
sS'S035/005'
p84
I3
sS'S128/011'
p85
I5
sS'S096/004'
p86
I5
sS'S042/006'
p87
I5
sS'S042/004'
p88
I1
sS'S127/010'
p89
I1
sS'S042/002'
p90
I6
sS'S076/006'
p91
I5
sS'S076/005'
p92
I3
sS'S042/001'
p93
I7
sS'S022/005'
p94
I1
sS'S022/006'
p95
I3
sS'S061/004'
p96
I3
sS'S061/002'
p97
I5
sS'S061/001'
p98
I7
sS'S059/002'
p99
I4
sS'S068/002'
p100
I5
sS'S059/001'
p101
I7
sS'S057/001'
p102
I7
sS'S034/003'
p103
I1
sS'S058/006'
p104
I3
sS'S053/004'
p105
I5
sS'S079/001'
p106
I7
sS'S079/002'
p107
I3
sS'S079/004'
p108
I5
sS'S053/001'
p109
I7
sS'S091/001'
p110
I4
sS'S129/011'
p111
I3
sS'S034/005'
p112
I5
sS'S094/001'
p113
I7
sS'S129/012'
p114
I5
sS'S029/001'
p115
I1
sS'S094/004'
p116
I5
sS'S134/008'
p117
I3
sS'S127/004'
p118
I5
sS'S011/005'
p119
I3
sS'S081/001'
p120
I7
sS'S011/006'
p121
I5
sS'S134/004'
p122
I5
sS'S011/004'
p123
I1
sS'S134/003'
p124
I1
sS'S130/013'
p125
I5
sS'S130/012'
p126
I3
sS'S011/003'
p127
I4
sS'S504/004'
p128
I4
sS'S066/005'
p129
I1
sS'S128/004'
p130
I3
sS'S504/001'
p131
I1
sS'S066/002'
p132
I7
sS'S504/002'
p133
I2
sS'S065/003'
p134
I7
sS'S065/002'
p135
I4
sS'S011/001'
p136
I7
sS'S502/002'
p137
I2
sS'S065/005'
p138
I3
sS'S065/004'
p139
I5
sS'S026/001'
p140
I7
sS'S026/002'
p141
I6
sS'S026/003'
p142
I1
sS'S136/005'
p143
I1
sS'S026/006'
p144
I5
sS'S093/001'
p145
I6
sS'S116/007'
p146
I5
sS'S093/004'
p147
I5
sS'S117/001'
p148
I7
sS'S506/002'
p149
I2
sS'S506/001'
p150
I1
sS'S504/006'
p151
I6
sS'S506/006'
p152
I6
sS'S506/004'
p153
I4
sS'S074/005'
p154
I5
sS'S074/004'
p155
I3
sS'S074/001'
p156
I4
sS'S037/003'
p157
I1
sS'S074/002'
p158
I7
sS'S078/001'
p159
I7
sS'S071/001'
p160
I7
sS'S044/006'
p161
I3
sS'S078/004'
p162
I5
sS'S056/002'
p163
I3
sS'S503/001'
p164
I1
sS'S156/002'
p165
I2
sS'S100/005'
p166
I1
sS'S084/001'
p167
I7
sS'S084/002'
p168
I4
sS'S100/006'
p169
I5
sS'S076/001'
p170
I7
sS'S100/002'
p171
I7
sS'S136/001'
p172
I7
sS'S106/006'
p173
I5
sS'S058/001'
p174
I7
sS'S106/004'
p175
I3
sS'S106/002'
p176
I6
sS'S058/005'
p177
I1
sS'S090/002'
p178
I7
sS'S136/003'
p179
I6
sS'S102/003'
p180
I4
sS'S132/008'
p181
I7
sS'S502/004'
p182
I4
sS'S108/005'
p183
I6
sS'S137/011'
p184
I5
sS'S138/005'
p185
I5
sS'S132/002'
p186
I6
sS'S132/003'
p187
I4
sS'S132/006'
p188
I5
sS'S132/005'
p189
I3
sS'S122/001'
p190
I7
sS'S102/002'
p191
I7
sS'S138/007'
p192
I6
sS'S138/001'
p193
I4
sS'S057/006'
p194
I5
sS'S067/005'
p195
I5
sS'S067/004'
p196
I1
sS'S102/009'
p197
I3
sS'S067/006'
p198
I3
sS'S138/008'
p199
I2
sS'S035/006'
p200
I5
sS'S044/001'
p201
I7
sS'S050/002'
p202
I7
sS'S050/001'
p203
I4
sS'S011/002'
p204
I6
sS'S050/006'
p205
I5
sS'S050/004'
p206
I1
sS'S503/006'
p207
I6
sS'S032/001'
p208
I7
sS'S071/002'
p209
I6
sS'S095/001'
p210
I7
sS'S095/006'
p211
I3
sS'S095/007'
p212
I5
sS'S055/003'
p213
I3
sS'S081/008'
p214
I3
sS'S046/002'
p215
I7
sS'S046/003'
p216
I4
sS'S046/001'
p217
I6
sS'S113/001'
p218
I7
sS'S112/005'
p219
I1
sS'S113/003'
p220
I6
sS'S115/008'
p221
I5
sS'S133/010'
p222
I5
sS'S057/003'
p223
I3
sS'S070/003'
p224
I5
sS'S115/004'
p225
I6
sS'S158/002'
p226
I2
sS'S113/008'
p227
I1
sS'S115/001'
p228
I7
sS'S085/004'
p229
I3
sS'S137/005'
p230
I6
sS'S137/001'
p231
I7
sS'S080/005'
p232
I6
sS'S147/002'
p233
I2
sS'S501/001'
p234
I1
sS'S034/001'
p235
I7
sS'S105/008'
p236
I3
sS'S111/001'
p237
I7
sS'S082/001'
p238
I7
sS'S111/007'
p239
I3
sS'S111/006'
p240
I1
sS'S082/007'
p241
I3
sS'S099/007'
p242
I3
sS'S099/004'
p243
I5
sS'S067/002'
p244
I7
sS'S099/001'
p245
I7
sS'S090/007'
p246
I1
sS'S090/006'
p247
I3
sS'S056/003'
p248
I7
sS'S110/001'
p249
I7
sS'S075/008'
p250
I1
sS'S056/004'
p251
I5
sS'S066/003'
p252
I5
sS'S081/002'
p253
I6
sS'S075/005'
p254
I3
sS'S075/006'
p255
I5
sS'S107/005'
p256
I3
sS'S095/010'
p257
I6
sS'S075/002'
p258
I7
sS'S107/001'
p259
I7
sS'S073/006'
p260
I3
sS'S126/004'
p261
I7
sS'S133/009'
p262
I7
sS'S073/001'
p263
I7
sS'S063/001'
p264
I7
sS'S063/002'
p265
I5
sS'S126/008'
p266
I1
sS'S052/004'
p267
I5
sS'S052/006'
p268
I3
sS'S052/001'
p269
I7
sS'S101/002'
p270
I7
sS'S154/002'
p271
I2
sS'S080/008'
p272
I3
sS'S097/006'
p273
I5
sS'S069/004'
p274
I5
sS'S069/003'
p275
I3
sS'S097/001'
p276
I7
sS'S124/003'
p277
I4
sS'S037/006'
p278
I5
sS'S124/001'
p279
I7
sS'S082/005'
p280
I1
sS'S124/007'
p281
I5
sS'S124/006'
p282
I3
sS'S109/005'
p283
I3
sS'S109/006'
p284
I5
sS'S086/002'
p285
I5
sS'S109/003'
p286
I1
sS'S502/001'
p287
I1
sS'S125/001'
p288
I6
sS'S125/006'
p289
I4
sS'S125/007'
p290
I7
sS'S125/005'
p291
I5
sS'S035/001'
p292
I7
sS'S114/006'
p293
I5
sS'S503/002'
p294
I2
sS'S125/008'
p295
I3
sS'S117/006'
p296
I1
sS'S071/004'
p297
I1
sS'S071/005'
p298
I5
sS'S071/006'
p299
I3
sS'S114/001'
p300
I7
sS'S895/002'
p301
I2
sS'S060/005'
p302
I3
sS'S060/002'
p303
I5
sS'S060/003'
p304
I7
sS'S501/004'
p305
I4
sS'S028/001'
p306
I1
sS'S022/001'
p307
I7
sS'S045/005'
p308
I1
sS'S045/004'
p309
I3
sS'S085/003'
p310
I7
sS'S085/002'
p311
I5
sS'S151/002'
p312
I2
sS'S088/004'
p313
I3
sS'S054/004'
p314
I3
sS'S054/003'
p315
I7
sS'S088/001'
p316
I7
sS'S032/003'
p317
I1
sS'S097/004'
p318
I3
sS'S149/002'
p319
I2
sS'S032/006'
p320
I5
sS'S032/005'
p321
I3
sS'S032/004'
p322
I4
sS'S999/003'
p323
I4
sS'S999/001'
p324
I1
sS'S131/006'
p325
I5
sS'S131/001'
p326
I7
sS'S131/003'
p327
I6
sS'S054/002'
p328
I4
s.